; Function Attrs: null_pointer_is_valid sspstrong uwtable
define noundef ptr @uat_get_table_by_name(ptr noundef %0) local_unnamed_addr #0 {
  %2 = load ptr, ptr @all_uats, align 8
  %3 = getelementptr inbounds nuw i8, ptr %2, i64 8
  %4 = load i32, ptr %3, align 8
  %.not12 = icmp eq i32 %4, 0
  br i1 %.not12, label %._crit_edge, label %.lr.ph

5:                                                ; preds = %.lr.ph
  %indvars.iv.next = add nuw nsw i64 %indvars.iv, 1
  %6 = load ptr, ptr @all_uats, align 8
  %7 = getelementptr inbounds nuw i8, ptr %6, i64 8
  %8 = load i32, ptr %7, align 8
  %9 = zext i32 %8 to i64
  %10 = icmp samesign ult i64 %indvars.iv.next, %9
  br i1 %10, label %.lr.ph, label %._crit_edge, !llvm.loop !13

.lr.ph:                                           ; preds = %1, %5
  %indvars.iv = phi i64 [ %indvars.iv.next, %5 ], [ 0, %1 ]
  %11 = phi ptr [ %6, %5 ], [ %2, %1 ]
  %12 = load ptr, ptr %11, align 8
  %13 = getelementptr ptr, ptr %12, i64 %indvars.iv
  %14 = load ptr, ptr %13, align 8
  %15 = load ptr, ptr %14, align 8
  %16 = tail call i32 @g_str_equal(ptr noundef %15, ptr noundef %0)
  %.not = icmp eq i32 %16, 0
  br i1 %.not, label %5, label %._crit_edge

._crit_edge:                                      ; preds = %.lr.ph, %5, %1
  %.2 = phi ptr [ null, %1 ], [ null, %5 ], [ %14, %.lr.ph ]
  ret ptr %.2
}